; Function Attrs: mustprogress nounwind uwtable
define internal fastcc void @"_ZZN3gmx17NelderMeadSimplex29shrinkSimplexPointsExceptBestERKSt8functionIFfNS_8ArrayRefIKfEEEEEN3$_0D2Ev"(ptr noundef nonnull align 8 dereferenceable(56) %0) unnamed_addr #2 align 2 personality ptr @__gxx_personality_v0 {
  %2 = getelementptr inbounds i8, ptr %0, i64 40
  %3 = load ptr, ptr %2, align 8
  %.not.i.i = icmp eq ptr %3, null
  br i1 %.not.i.i, label %_ZNSt8functionIFfN3gmx8ArrayRefIKfEEEED2Ev.exit, label %4

4:                                                ; preds = %1
  %5 = getelementptr inbounds i8, ptr %0, i64 24
  %6 = invoke noundef zeroext i1 %3(ptr noundef nonnull align 8 dereferenceable(16) %5, ptr noundef nonnull align 8 dereferenceable(16) %5, i32 noundef 3)
          to label %_ZNSt8functionIFfN3gmx8ArrayRefIKfEEEED2Ev.exit unwind label %7

7:                                                ; preds = %4
  %8 = landingpad { ptr, i32 }
          catch ptr null
  %9 = extractvalue { ptr, i32 } %8, 0
  tail call void @__clang_call_terminate(ptr %9) #19
  unreachable

_ZNSt8functionIFfN3gmx8ArrayRefIKfEEEED2Ev.exit:  ; preds = %1, %4
  %10 = load ptr, ptr %0, align 8
  %.not.i.i.i = icmp eq ptr %10, null
  br i1 %.not.i.i.i, label %_ZNSt6vectorIfSaIfEED2Ev.exit, label %11

11:                                               ; preds = %_ZNSt8functionIFfN3gmx8ArrayRefIKfEEEED2Ev.exit
  tail call void @_ZdlPv(ptr noundef nonnull %10) #18
  br label %_ZNSt6vectorIfSaIfEED2Ev.exit

_ZNSt6vectorIfSaIfEED2Ev.exit:                    ; preds = %_ZNSt8functionIFfN3gmx8ArrayRefIKfEEEED2Ev.exit, %11
  ret void
}